target datalayout = "e-m:e-p270:32:32-p271:32:32-p272:64:64-i64:64-i128:128-f80:128-n8:16:32:64-S128"
target triple = "x86_64-pc-linux-gnu"

%"class.nanogui::Texture" = type { %"class.nanogui::Object.base", i8, i8, i8, i8, i8, i8, i8, %"struct.nanogui::Array", i8, i32, i32 }
%"class.nanogui::Object.base" = type <{ ptr, %"struct.std::atomic" }>
%"struct.std::atomic" = type { %"struct.std::__atomic_base" }
%"struct.std::__atomic_base" = type { i32 }
%"struct.nanogui::Array" = type { [2 x i32] }

@_ZTISt13runtime_error = external constant ptr
@.str.3 = private unnamed_addr constant [51 x i8] c"Texture::upload(): only implemented for samples=1!\00", align 1

; Function Attrs: mustprogress uwtable
define hidden void @_ZN7nanogui7Texture15generate_mipmapEv(ptr noundef nonnull align 8 dereferenceable(40) %0) #0 align 2 {
  %2 = alloca ptr, align 8
  %3 = alloca i32, align 4
  store ptr %0, ptr %2, align 8
  %4 = load ptr, ptr %2, align 8
  %5 = getelementptr inbounds %"class.nanogui::Texture", ptr %4, i32 0, i32 6
  %6 = load i8, ptr %5, align 1
  %7 = zext i8 %6 to i32
  %8 = icmp sgt i32 %7, 1
  %9 = select i1 %8, i32 37120, i32 3553
  store i32 %9, ptr %3, align 4
  %10 = load i32, ptr %3, align 4
  %11 = getelementptr inbounds %"class.nanogui::Texture", ptr %4, i32 0, i32 10
  %12 = load i32, ptr %11, align 8
  call void @glBindTexture(i32 noundef %10, i32 noundef %12)
  %13 = load i32, ptr %3, align 4
  call void @glGenerateMipmap(i32 noundef %13)
  ret void
}

; Function Attrs: mustprogress nounwind uwtable
define linkonce_odr hidden noundef nonnull align 4 dereferenceable(4) ptr @_ZN7nanogui5ArrayIiLm2EE1yILm2ETnNSt9enable_ifIXgeT_Li2EEiE4typeELi0EEERiv(ptr noundef nonnull align 4 dereferenceable(8) %0) #3 comdat align 2 {
  %2 = alloca ptr, align 8
  store ptr %0, ptr %2, align 8
  %3 = load ptr, ptr %2, align 8
  %4 = getelementptr inbounds %"struct.nanogui::Array", ptr %3, i32 0, i32 0
  %5 = getelementptr inbounds [2 x i32], ptr %4, i64 0, i64 1
  ret ptr %5
}

; Function Attrs: mustprogress nounwind uwtable
define linkonce_odr hidden noundef nonnull align 4 dereferenceable(4) ptr @_ZN7nanogui5ArrayIiLm2EE1xILm2ETnNSt9enable_ifIXgeT_Li1EEiE4typeELi0EEERiv(ptr noundef nonnull align 4 dereferenceable(8) %0) #3 comdat align 2 {
  %2 = alloca ptr, align 8
  store ptr %0, ptr %2, align 8
  %3 = load ptr, ptr %2, align 8
  %4 = getelementptr inbounds %"struct.nanogui::Array", ptr %3, i32 0, i32 0
  %5 = getelementptr inbounds [2 x i32], ptr %4, i64 0, i64 0
  ret ptr %5
}

; Function Attrs: mustprogress uwtable
define hidden void @_ZN7nanogui7Texture6uploadEPKh(ptr noundef nonnull align 8 dereferenceable(40) %0, ptr noundef %1) #0 align 2 personality ptr @__gxx_personality_v0 {
  %3 = alloca ptr, align 8
  %4 = alloca ptr, align 8
  %5 = alloca ptr, align 8
  %6 = alloca i32, align 4
  %7 = alloca i32, align 4
  %8 = alloca i32, align 4
  %9 = alloca i32, align 4
  %10 = alloca i32, align 4
  store ptr %0, ptr %3, align 8
  store ptr %1, ptr %4, align 8
  %11 = load ptr, ptr %3, align 8
  %12 = getelementptr inbounds %"class.nanogui::Texture", ptr %11, i32 0, i32 6
  %13 = load i8, ptr %12, align 1
  %14 = zext i8 %13 to i32
  %15 = icmp sgt i32 %14, 1
  br i1 %15, label %16, label %26

16:                                               ; preds = %2
  %17 = load ptr, ptr %4, align 8
  %18 = icmp ne ptr %17, null
  br i1 %18, label %19, label %26

19:                                               ; preds = %16
  %20 = call ptr @__cxa_allocate_exception(i64 16) #8
  invoke void @_ZNSt13runtime_errorC1EPKc(ptr noundef nonnull align 8 dereferenceable(16) %20, ptr noundef @.str.3)
          to label %21 unwind label %22

21:                                               ; preds = %19
  call void @__cxa_throw(ptr %20, ptr @_ZTISt13runtime_error, ptr @_ZNSt13runtime_errorD1Ev) #9
  unreachable

22:                                               ; preds = %19
  %23 = landingpad { ptr, i32 }
          cleanup
  %24 = extractvalue { ptr, i32 } %23, 0
  store ptr %24, ptr %5, align 8
  %25 = extractvalue { ptr, i32 } %23, 1
  store i32 %25, ptr %6, align 4
  call void @__cxa_free_exception(ptr %20) #8
  br label %119

26:                                               ; preds = %16, %2
  %27 = getelementptr inbounds %"class.nanogui::Texture", ptr %11, i32 0, i32 1
  %28 = getelementptr inbounds %"class.nanogui::Texture", ptr %11, i32 0, i32 2
  call void @_ZN7nanoguiL21gl_map_texture_formatERNS_7Texture11PixelFormatERNS0_15ComponentFormatERjS5_S5_(ptr noundef nonnull align 1 dereferenceable(1) %27, ptr noundef nonnull align 1 dereferenceable(1) %28, ptr noundef nonnull align 4 dereferenceable(4) %7, ptr noundef nonnull align 4 dereferenceable(4) %8, ptr noundef nonnull align 4 dereferenceable(4) %9)
  %29 = getelementptr inbounds %"class.nanogui::Texture", ptr %11, i32 0, i32 10
  %30 = load i32, ptr %29, align 8
  %31 = icmp ne i32 %30, 0
  br i1 %31, label %32, label %91

32:                                               ; preds = %26
  %33 = getelementptr inbounds %"class.nanogui::Texture", ptr %11, i32 0, i32 6
  %34 = load i8, ptr %33, align 1
  %35 = zext i8 %34 to i32
  %36 = icmp sgt i32 %35, 1
  %37 = select i1 %36, i32 37120, i32 3553
  store i32 %37, ptr %10, align 4
  %38 = load i32, ptr %10, align 4
  %39 = getelementptr inbounds %"class.nanogui::Texture", ptr %11, i32 0, i32 10
  %40 = load i32, ptr %39, align 8
  call void @glBindTexture(i32 noundef %38, i32 noundef %40)
  %41 = load ptr, ptr %4, align 8
  %42 = icmp ne ptr %41, null
  br i1 %42, label %43, label %44

43:                                               ; preds = %32
  call void @glPixelStorei(i32 noundef 3317, i32 noundef 1)
  br label %44

44:                                               ; preds = %43, %32
  %45 = load ptr, ptr %4, align 8
  %46 = icmp ne ptr %45, null
  br i1 %46, label %47, label %48

47:                                               ; preds = %44
  call void @glPixelStorei(i32 noundef 3314, i32 noundef 0)
  call void @glPixelStorei(i32 noundef 3315, i32 noundef 0)
  call void @glPixelStorei(i32 noundef 3316, i32 noundef 0)
  br label %48

48:                                               ; preds = %47, %44
  %49 = getelementptr inbounds %"class.nanogui::Texture", ptr %11, i32 0, i32 6
  %50 = load i8, ptr %49, align 1
  %51 = zext i8 %50 to i32
  %52 = icmp eq i32 %51, 1
  br i1 %52, label %53, label %65

53:                                               ; preds = %48
  %54 = load i32, ptr %10, align 4
  %55 = load i32, ptr %9, align 4
  %56 = getelementptr inbounds %"class.nanogui::Texture", ptr %11, i32 0, i32 8
  %57 = call noundef nonnull align 4 dereferenceable(4) ptr @_ZN7nanogui5ArrayIiLm2EE1xILm2ETnNSt9enable_ifIXgeT_Li1EEiE4typeELi0EEERiv(ptr noundef nonnull align 4 dereferenceable(8) %56)
  %58 = load i32, ptr %57, align 4
  %59 = getelementptr inbounds %"class.nanogui::Texture", ptr %11, i32 0, i32 8
  %60 = call noundef nonnull align 4 dereferenceable(4) ptr @_ZN7nanogui5ArrayIiLm2EE1yILm2ETnNSt9enable_ifIXgeT_Li2EEiE4typeELi0EEERiv(ptr noundef nonnull align 4 dereferenceable(8) %59)
  %61 = load i32, ptr %60, align 4
  %62 = load i32, ptr %7, align 4
  %63 = load i32, ptr %8, align 4
  %64 = load ptr, ptr %4, align 8
  call void @glTexImage2D(i32 noundef %54, i32 noundef 0, i32 noundef %55, i32 noundef %58, i32 noundef %61, i32 noundef 0, i32 noundef %62, i32 noundef %63, ptr noundef %64)
  br label %77

65:                                               ; preds = %48
  %66 = load i32, ptr %10, align 4
  %67 = getelementptr inbounds %"class.nanogui::Texture", ptr %11, i32 0, i32 6
  %68 = load i8, ptr %67, align 1
  %69 = zext i8 %68 to i32
  %70 = load i32, ptr %9, align 4
  %71 = getelementptr inbounds %"class.nanogui::Texture", ptr %11, i32 0, i32 8
  %72 = call noundef nonnull align 4 dereferenceable(4) ptr @_ZN7nanogui5ArrayIiLm2EE1xILm2ETnNSt9enable_ifIXgeT_Li1EEiE4typeELi0EEERiv(ptr noundef nonnull align 4 dereferenceable(8) %71)
  %73 = load i32, ptr %72, align 4
  %74 = getelementptr inbounds %"class.nanogui::Texture", ptr %11, i32 0, i32 8
  %75 = call noundef nonnull align 4 dereferenceable(4) ptr @_ZN7nanogui5ArrayIiLm2EE1yILm2ETnNSt9enable_ifIXgeT_Li2EEiE4typeELi0EEERiv(ptr noundef nonnull align 4 dereferenceable(8) %74)
  %76 = load i32, ptr %75, align 4
  call void @glTexImage2DMultisample(i32 noundef %66, i32 noundef %69, i32 noundef %70, i32 noundef %73, i32 noundef %76, i8 noundef zeroext 0)
  br label %77

77:                                               ; preds = %65, %53
  %78 = getelementptr inbounds %"class.nanogui::Texture", ptr %11, i32 0, i32 9
  %79 = load i8, ptr %78, align 4
  %80 = trunc i8 %79 to i1
  br i1 %80, label %90, label %81

81:                                               ; preds = %77
  %82 = getelementptr inbounds %"class.nanogui::Texture", ptr %11, i32 0, i32 3
  %83 = load i8, ptr %82, align 2
  %84 = icmp eq i8 %83, 2
  br i1 %84, label %89, label %85

85:                                               ; preds = %81
  %86 = getelementptr inbounds %"class.nanogui::Texture", ptr %11, i32 0, i32 4
  %87 = load i8, ptr %86, align 1
  %88 = icmp eq i8 %87, 2
  br i1 %88, label %89, label %90

89:                                               ; preds = %85, %81
  call void @_ZN7nanogui7Texture15generate_mipmapEv(ptr noundef nonnull align 8 dereferenceable(40) %11)
  br label %90

90:                                               ; preds = %89, %85, %77
  br label %118

91:                                               ; preds = %26
  %92 = getelementptr inbounds %"class.nanogui::Texture", ptr %11, i32 0, i32 11
  %93 = load i32, ptr %92, align 4
  call void @glBindRenderbuffer(i32 noundef 36161, i32 noundef %93)
  %94 = getelementptr inbounds %"class.nanogui::Texture", ptr %11, i32 0, i32 6
  %95 = load i8, ptr %94, align 1
  %96 = zext i8 %95 to i32
  %97 = icmp eq i32 %96, 1
  br i1 %97, label %98, label %106

98:                                               ; preds = %91
  %99 = load i32, ptr %9, align 4
  %100 = getelementptr inbounds %"class.nanogui::Texture", ptr %11, i32 0, i32 8
  %101 = call noundef nonnull align 4 dereferenceable(4) ptr @_ZN7nanogui5ArrayIiLm2EE1xILm2ETnNSt9enable_ifIXgeT_Li1EEiE4typeELi0EEERiv(ptr noundef nonnull align 4 dereferenceable(8) %100)
  %102 = load i32, ptr %101, align 4
  %103 = getelementptr inbounds %"class.nanogui::Texture", ptr %11, i32 0, i32 8
  %104 = call noundef nonnull align 4 dereferenceable(4) ptr @_ZN7nanogui5ArrayIiLm2EE1yILm2ETnNSt9enable_ifIXgeT_Li2EEiE4typeELi0EEERiv(ptr noundef nonnull align 4 dereferenceable(8) %103)
  %105 = load i32, ptr %104, align 4
  call void @glRenderbufferStorage(i32 noundef 36161, i32 noundef %99, i32 noundef %102, i32 noundef %105)
  br label %117

106:                                              ; preds = %91
  %107 = getelementptr inbounds %"class.nanogui::Texture", ptr %11, i32 0, i32 6
  %108 = load i8, ptr %107, align 1
  %109 = zext i8 %108 to i32
  %110 = load i32, ptr %9, align 4
  %111 = getelementptr inbounds %"class.nanogui::Texture", ptr %11, i32 0, i32 8
  %112 = call noundef nonnull align 4 dereferenceable(4) ptr @_ZN7nanogui5ArrayIiLm2EE1xILm2ETnNSt9enable_ifIXgeT_Li1EEiE4typeELi0EEERiv(ptr noundef nonnull align 4 dereferenceable(8) %111)
  %113 = load i32, ptr %112, align 4
  %114 = getelementptr inbounds %"class.nanogui::Texture", ptr %11, i32 0, i32 8
  %115 = call noundef nonnull align 4 dereferenceable(4) ptr @_ZN7nanogui5ArrayIiLm2EE1yILm2ETnNSt9enable_ifIXgeT_Li2EEiE4typeELi0EEERiv(ptr noundef nonnull align 4 dereferenceable(8) %114)
  %116 = load i32, ptr %115, align 4
  call void @glRenderbufferStorageMultisample(i32 noundef 36161, i32 noundef %109, i32 noundef %110, i32 noundef %113, i32 noundef %116)
  br label %117

117:                                              ; preds = %106, %98
  br label %118

118:                                              ; preds = %117, %90
  ret void

119:                                              ; preds = %22
  %120 = load ptr, ptr %5, align 8
  %121 = load i32, ptr %6, align 4
  %122 = insertvalue { ptr, i32 } poison, ptr %120, 0
  %123 = insertvalue { ptr, i32 } %122, i32 %121, 1
  resume { ptr, i32 } %123
}