; Function Attrs: mustprogress uwtable
define hidden void @_ZN7nanogui7Texture6uploadEPKh(ptr nocapture noundef nonnull align 8 dereferenceable(40) %0, ptr noundef %1) local_unnamed_addr #0 align 2 personality ptr @__gxx_personality_v0 {
  %3 = alloca i32, align 4
  %4 = alloca i32, align 4
  %5 = alloca i32, align 4
  %6 = getelementptr inbounds i8, ptr %0, i64 17
  %7 = load i8, ptr %6, align 1
  %8 = icmp ugt i8 %7, 1
  %9 = icmp ne ptr %1, null
  %or.cond = and i1 %9, %8
  br i1 %or.cond, label %10, label %15

10:                                               ; preds = %2
  %11 = tail call ptr @__cxa_allocate_exception(i64 16) #8
  invoke void @_ZNSt13runtime_errorC1EPKc(ptr noundef nonnull align 8 dereferenceable(16) %11, ptr noundef nonnull @.str.3)
          to label %12 unwind label %13

12:                                               ; preds = %10
  tail call void @__cxa_throw(ptr nonnull %11, ptr nonnull @_ZTISt13runtime_error, ptr nonnull @_ZNSt13runtime_errorD1Ev) #9
  unreachable

13:                                               ; preds = %10
  %14 = landingpad { ptr, i32 }
          cleanup
  tail call void @__cxa_free_exception(ptr %11) #8
  resume { ptr, i32 } %14

15:                                               ; preds = %2
  %16 = getelementptr inbounds i8, ptr %0, i64 12
  %17 = getelementptr inbounds i8, ptr %0, i64 13
  call fastcc void @_ZN7nanoguiL21gl_map_texture_formatERNS_7Texture11PixelFormatERNS0_15ComponentFormatERjS5_S5_(ptr noundef nonnull align 1 dereferenceable(1) %16, ptr noundef nonnull align 1 dereferenceable(1) %17, ptr noundef nonnull align 4 dereferenceable(4) %3, ptr noundef nonnull align 4 dereferenceable(4) %4, ptr noundef nonnull align 4 dereferenceable(4) %5)
  %18 = getelementptr inbounds i8, ptr %0, i64 32
  %19 = load i32, ptr %18, align 8
  %.not = icmp eq i32 %19, 0
  br i1 %.not, label %58, label %20

20:                                               ; preds = %15
  %21 = load i8, ptr %6, align 1
  %22 = icmp ugt i8 %21, 1
  %23 = select i1 %22, i32 37120, i32 3553
  tail call void @glBindTexture(i32 noundef %23, i32 noundef %19)
  br i1 %9, label %24, label %.critedge

24:                                               ; preds = %20
  tail call void @glPixelStorei(i32 noundef 3317, i32 noundef 1)
  tail call void @glPixelStorei(i32 noundef 3314, i32 noundef 0)
  tail call void @glPixelStorei(i32 noundef 3315, i32 noundef 0)
  tail call void @glPixelStorei(i32 noundef 3316, i32 noundef 0)
  br label %.critedge

.critedge:                                        ; preds = %20, %24
  %25 = load i8, ptr %6, align 1
  %26 = icmp eq i8 %25, 1
  br i1 %26, label %27, label %35

27:                                               ; preds = %.critedge
  %28 = load i32, ptr %5, align 4
  %29 = getelementptr inbounds i8, ptr %0, i64 20
  %30 = load i32, ptr %29, align 4
  %31 = getelementptr inbounds i8, ptr %0, i64 24
  %32 = load i32, ptr %31, align 8
  %33 = load i32, ptr %3, align 4
  %34 = load i32, ptr %4, align 4
  tail call void @glTexImage2D(i32 noundef %23, i32 noundef 0, i32 noundef %28, i32 noundef %30, i32 noundef %32, i32 noundef 0, i32 noundef %33, i32 noundef %34, ptr noundef %1)
  br label %42

35:                                               ; preds = %.critedge
  %36 = zext i8 %25 to i32
  %37 = load i32, ptr %5, align 4
  %38 = getelementptr inbounds i8, ptr %0, i64 20
  %39 = load i32, ptr %38, align 4
  %40 = getelementptr inbounds i8, ptr %0, i64 24
  %41 = load i32, ptr %40, align 8
  tail call void @glTexImage2DMultisample(i32 noundef %23, i32 noundef %36, i32 noundef %37, i32 noundef %39, i32 noundef %41, i8 noundef zeroext 0)
  br label %42

42:                                               ; preds = %35, %27
  %43 = getelementptr inbounds i8, ptr %0, i64 28
  %44 = load i8, ptr %43, align 4
  %45 = and i8 %44, 1
  %.not12 = icmp eq i8 %45, 0
  br i1 %.not12, label %46, label %76

46:                                               ; preds = %42
  %47 = getelementptr inbounds i8, ptr %0, i64 14
  %48 = load i8, ptr %47, align 2
  %49 = icmp eq i8 %48, 2
  %50 = getelementptr inbounds i8, ptr %0, i64 15
  %51 = load i8, ptr %50, align 1
  %52 = icmp eq i8 %51, 2
  %or.cond15 = select i1 %49, i1 true, i1 %52
  br i1 %or.cond15, label %53, label %76

53:                                               ; preds = %46
  %54 = load i8, ptr %6, align 1
  %55 = icmp ugt i8 %54, 1
  %56 = select i1 %55, i32 37120, i32 3553
  %57 = load i32, ptr %18, align 8
  tail call void @glBindTexture(i32 noundef %56, i32 noundef %57)
  tail call void @glGenerateMipmap(i32 noundef %56)
  br label %76

58:                                               ; preds = %15
  %59 = getelementptr inbounds i8, ptr %0, i64 36
  %60 = load i32, ptr %59, align 4
  tail call void @glBindRenderbuffer(i32 noundef 36161, i32 noundef %60)
  %61 = load i8, ptr %6, align 1
  %62 = icmp eq i8 %61, 1
  br i1 %62, label %63, label %69

63:                                               ; preds = %58
  %64 = load i32, ptr %5, align 4
  %65 = getelementptr inbounds i8, ptr %0, i64 20
  %66 = load i32, ptr %65, align 4
  %67 = getelementptr inbounds i8, ptr %0, i64 24
  %68 = load i32, ptr %67, align 8
  tail call void @glRenderbufferStorage(i32 noundef 36161, i32 noundef %64, i32 noundef %66, i32 noundef %68)
  br label %76

69:                                               ; preds = %58
  %70 = zext i8 %61 to i32
  %71 = load i32, ptr %5, align 4
  %72 = getelementptr inbounds i8, ptr %0, i64 20
  %73 = load i32, ptr %72, align 4
  %74 = getelementptr inbounds i8, ptr %0, i64 24
  %75 = load i32, ptr %74, align 8
  tail call void @glRenderbufferStorageMultisample(i32 noundef 36161, i32 noundef %70, i32 noundef %71, i32 noundef %73, i32 noundef %75)
  br label %76

76:                                               ; preds = %46, %63, %69, %42, %53
  ret void
}